target datalayout = "e-m:e-p270:32:32-p271:32:32-p272:64:64-i64:64-i128:128-f80:128-n8:16:32:64-S128"
target triple = "x86_64-pc-linux-gnu"

%struct.ossl_param_st = type { ptr, i32, ptr, i64, i64 }

@.str.4 = private unnamed_addr constant [15 x i8] c"get params %p\0A\00", align 1
@.str.5 = private unnamed_addr constant [5 x i8] c"bits\00", align 1
@.str.6 = private unnamed_addr constant [14 x i8] c"security-bits\00", align 1
@.str.7 = private unnamed_addr constant [9 x i8] c"max-size\00", align 1
@.str.8 = private unnamed_addr constant [16 x i8] c"encoded-pub-key\00", align 1
@.str.9 = private unnamed_addr constant [15 x i8] c"get params OK\0A\00", align 1

; Function Attrs: inlinehint nounwind uwtable
define internal i32 @ossl_param_is_empty(ptr noundef %0) #3 {
  %2 = alloca ptr, align 8
  store ptr %0, ptr %2, align 8, !tbaa !7
  %3 = load ptr, ptr %2, align 8, !tbaa !7
  %4 = icmp eq ptr %3, null
  br i1 %4, label %10, label %5

5:                                                ; preds = %1
  %6 = load ptr, ptr %2, align 8, !tbaa !7
  %7 = getelementptr inbounds nuw %struct.ossl_param_st, ptr %6, i32 0, i32 0
  %8 = load ptr, ptr %7, align 8, !tbaa !20
  %9 = icmp eq ptr %8, null
  br label %10

10:                                               ; preds = %5, %1
  %11 = phi i1 [ true, %1 ], [ %9, %5 ]
  %12 = zext i1 %11 to i32
  ret i32 %12
}

; Function Attrs: nounwind uwtable
define internal void @debug_print(ptr noundef %0, ...) #0 {
  %2 = alloca ptr, align 8
  store ptr %0, ptr %2, align 8, !tbaa !18
  ret void
}

; Function Attrs: nounwind uwtable
define internal i32 @template_get_params(ptr noundef %0, ptr noundef %1) #0 {
  %3 = alloca i32, align 4
  %4 = alloca ptr, align 8
  %5 = alloca ptr, align 8
  %6 = alloca ptr, align 8
  %7 = alloca i32, align 4
  store ptr %0, ptr %4, align 8, !tbaa !3
  store ptr %1, ptr %5, align 8, !tbaa !7
  call void @llvm.lifetime.start.p0(i64 8, ptr %6) #4
  %8 = load ptr, ptr %4, align 8, !tbaa !3
  call void (ptr, ...) @debug_print(ptr noundef @.str.4, ptr noundef %8)
  %9 = load ptr, ptr %5, align 8, !tbaa !7
  %10 = call i32 @ossl_param_is_empty(ptr noundef %9)
  %11 = icmp ne i32 %10, 0
  br i1 %11, label %12, label %13

12:                                               ; preds = %2
  store i32 0, ptr %3, align 4
  store i32 1, ptr %7, align 4
  br label %51

13:                                               ; preds = %2
  %14 = load ptr, ptr %5, align 8, !tbaa !7
  %15 = call ptr @OSSL_PARAM_locate(ptr noundef %14, ptr noundef @.str.5)
  store ptr %15, ptr %6, align 8, !tbaa !7
  %16 = icmp ne ptr %15, null
  br i1 %16, label %17, label %22

17:                                               ; preds = %13
  %18 = load ptr, ptr %6, align 8, !tbaa !7
  %19 = call i32 @OSSL_PARAM_set_int(ptr noundef %18, i32 noundef 0)
  %20 = icmp ne i32 %19, 0
  br i1 %20, label %22, label %21

21:                                               ; preds = %17
  store i32 0, ptr %3, align 4
  store i32 1, ptr %7, align 4
  br label %51

22:                                               ; preds = %17, %13
  %23 = load ptr, ptr %5, align 8, !tbaa !7
  %24 = call ptr @OSSL_PARAM_locate(ptr noundef %23, ptr noundef @.str.6)
  store ptr %24, ptr %6, align 8, !tbaa !7
  %25 = icmp ne ptr %24, null
  br i1 %25, label %26, label %31

26:                                               ; preds = %22
  %27 = load ptr, ptr %6, align 8, !tbaa !7
  %28 = call i32 @OSSL_PARAM_set_int(ptr noundef %27, i32 noundef 0)
  %29 = icmp ne i32 %28, 0
  br i1 %29, label %31, label %30

30:                                               ; preds = %26
  store i32 0, ptr %3, align 4
  store i32 1, ptr %7, align 4
  br label %51

31:                                               ; preds = %26, %22
  %32 = load ptr, ptr %5, align 8, !tbaa !7
  %33 = call ptr @OSSL_PARAM_locate(ptr noundef %32, ptr noundef @.str.7)
  store ptr %33, ptr %6, align 8, !tbaa !7
  %34 = icmp ne ptr %33, null
  br i1 %34, label %35, label %40

35:                                               ; preds = %31
  %36 = load ptr, ptr %6, align 8, !tbaa !7
  %37 = call i32 @OSSL_PARAM_set_int(ptr noundef %36, i32 noundef 0)
  %38 = icmp ne i32 %37, 0
  br i1 %38, label %40, label %39

39:                                               ; preds = %35
  store i32 0, ptr %3, align 4
  store i32 1, ptr %7, align 4
  br label %51

40:                                               ; preds = %35, %31
  %41 = load ptr, ptr %5, align 8, !tbaa !7
  %42 = call ptr @OSSL_PARAM_locate(ptr noundef %41, ptr noundef @.str.8)
  store ptr %42, ptr %6, align 8, !tbaa !7
  %43 = icmp ne ptr %42, null
  br i1 %43, label %44, label %50

44:                                               ; preds = %40
  %45 = load ptr, ptr %6, align 8, !tbaa !7
  %46 = call i32 @OSSL_PARAM_set_octet_string(ptr noundef %45, ptr noundef null, i64 noundef 0)
  %47 = icmp ne i32 %46, 0
  br i1 %47, label %49, label %48

48:                                               ; preds = %44
  store i32 0, ptr %3, align 4
  store i32 1, ptr %7, align 4
  br label %51

49:                                               ; preds = %44
  br label %50

50:                                               ; preds = %49, %40
  call void (ptr, ...) @debug_print(ptr noundef @.str.9)
  store i32 1, ptr %3, align 4
  store i32 1, ptr %7, align 4
  br label %51

51:                                               ; preds = %50, %48, %39, %30, %21, %12
  call void @llvm.lifetime.end.p0(i64 8, ptr %6) #4
  %52 = load i32, ptr %3, align 4
  ret i32 %52
}