; Function Attrs: nounwind uwtable
define internal range(i32 0, 2) i32 @template_get_params(ptr readnone captures(none) %0, ptr noundef %1) #0 {
  %3 = icmp eq ptr %1, null
  br i1 %3, label %ossl_param_is_empty.exit.thread, label %ossl_param_is_empty.exit

ossl_param_is_empty.exit:                         ; preds = %2
  %4 = load ptr, ptr %1, align 8, !tbaa !3
  %.not = icmp eq ptr %4, null
  br i1 %.not, label %ossl_param_is_empty.exit.thread, label %5

5:                                                ; preds = %ossl_param_is_empty.exit
  %6 = tail call ptr @OSSL_PARAM_locate(ptr noundef nonnull %1, ptr noundef nonnull @.str.5) #3
  %.not14 = icmp eq ptr %6, null
  br i1 %.not14, label %9, label %7

7:                                                ; preds = %5
  %8 = tail call i32 @OSSL_PARAM_set_int(ptr noundef nonnull %6, i32 noundef 0) #3
  %.not15 = icmp eq i32 %8, 0
  br i1 %.not15, label %ossl_param_is_empty.exit.thread, label %9

9:                                                ; preds = %7, %5
  %10 = tail call ptr @OSSL_PARAM_locate(ptr noundef nonnull %1, ptr noundef nonnull @.str.6) #3
  %.not16 = icmp eq ptr %10, null
  br i1 %.not16, label %13, label %11

11:                                               ; preds = %9
  %12 = tail call i32 @OSSL_PARAM_set_int(ptr noundef nonnull %10, i32 noundef 0) #3
  %.not17 = icmp eq i32 %12, 0
  br i1 %.not17, label %ossl_param_is_empty.exit.thread, label %13

13:                                               ; preds = %11, %9
  %14 = tail call ptr @OSSL_PARAM_locate(ptr noundef nonnull %1, ptr noundef nonnull @.str.7) #3
  %.not18 = icmp eq ptr %14, null
  br i1 %.not18, label %17, label %15

15:                                               ; preds = %13
  %16 = tail call i32 @OSSL_PARAM_set_int(ptr noundef nonnull %14, i32 noundef 0) #3
  %.not19 = icmp eq i32 %16, 0
  br i1 %.not19, label %ossl_param_is_empty.exit.thread, label %17

17:                                               ; preds = %15, %13
  %18 = tail call ptr @OSSL_PARAM_locate(ptr noundef nonnull %1, ptr noundef nonnull @.str.8) #3
  %.not20 = icmp eq ptr %18, null
  br i1 %.not20, label %21, label %19

19:                                               ; preds = %17
  %20 = tail call i32 @OSSL_PARAM_set_octet_string(ptr noundef nonnull %18, ptr noundef null, i64 noundef 0) #3
  %.not21 = icmp eq i32 %20, 0
  br i1 %.not21, label %ossl_param_is_empty.exit.thread, label %21

21:                                               ; preds = %19, %17
  br label %ossl_param_is_empty.exit.thread

ossl_param_is_empty.exit.thread:                  ; preds = %2, %19, %15, %11, %7, %ossl_param_is_empty.exit, %21
  %.0 = phi i32 [ 1, %21 ], [ 0, %ossl_param_is_empty.exit ], [ 0, %7 ], [ 0, %11 ], [ 0, %15 ], [ 0, %19 ], [ 0, %2 ]
  ret i32 %.0
}